target datalayout = "e-m:e-p270:32:32-p271:32:32-p272:64:64-i64:64-i128:128-f80:128-n8:16:32:64-S128"
target triple = "x86_64-pc-linux-gnu"

%struct.lzma_next_coder_s = type { ptr, i64, i64, ptr, ptr, ptr, ptr, ptr, ptr, ptr }
%struct.lzma_index_coder = type { i32, i64, ptr, ptr, i64, i64, i64, i64, i32 }
%struct.lzma_stream = type { ptr, i64, i64, ptr, i64, i64, ptr, ptr, ptr, ptr, ptr, ptr, i64, i64, i64, i64, i32, i32 }
%struct.lzma_internal_s = type { %struct.lzma_next_coder_s, i32, i64, [5 x i8], i8 }

; Function Attrs: nounwind uwtable
define internal i32 @index_decoder_reset(ptr noundef %0, ptr noundef %1, ptr noundef %2, i64 noundef %3) #0 {
  %5 = alloca i32, align 4
  %6 = alloca ptr, align 8
  %7 = alloca ptr, align 8
  %8 = alloca ptr, align 8
  %9 = alloca i64, align 8
  store ptr %0, ptr %6, align 8, !tbaa !9
  store ptr %1, ptr %7, align 8, !tbaa !9
  store ptr %2, ptr %8, align 8, !tbaa !10
  store i64 %3, ptr %9, align 8, !tbaa !12
  %10 = load ptr, ptr %8, align 8, !tbaa !10
  %11 = load ptr, ptr %6, align 8, !tbaa !9
  %12 = getelementptr inbounds nuw %struct.lzma_index_coder, ptr %11, i32 0, i32 3
  store ptr %10, ptr %12, align 8, !tbaa !39
  %13 = load ptr, ptr %8, align 8, !tbaa !10
  store ptr null, ptr %13, align 8, !tbaa !40
  %14 = load ptr, ptr %7, align 8, !tbaa !9
  %15 = call ptr @lzma_index_init(ptr noundef %14) #5
  %16 = load ptr, ptr %6, align 8, !tbaa !9
  %17 = getelementptr inbounds nuw %struct.lzma_index_coder, ptr %16, i32 0, i32 2
  store ptr %15, ptr %17, align 8, !tbaa !20
  %18 = load ptr, ptr %6, align 8, !tbaa !9
  %19 = getelementptr inbounds nuw %struct.lzma_index_coder, ptr %18, i32 0, i32 2
  %20 = load ptr, ptr %19, align 8, !tbaa !20
  %21 = icmp eq ptr %20, null
  br i1 %21, label %22, label %23

22:                                               ; preds = %4
  store i32 5, ptr %5, align 4
  br label %41

23:                                               ; preds = %4
  %24 = load ptr, ptr %6, align 8, !tbaa !9
  %25 = getelementptr inbounds nuw %struct.lzma_index_coder, ptr %24, i32 0, i32 0
  store i32 0, ptr %25, align 8, !tbaa !29
  %26 = load i64, ptr %9, align 8, !tbaa !12
  %27 = icmp ugt i64 1, %26
  br i1 %27, label %28, label %29

28:                                               ; preds = %23
  br label %31

29:                                               ; preds = %23
  %30 = load i64, ptr %9, align 8, !tbaa !12
  br label %31

31:                                               ; preds = %29, %28
  %32 = phi i64 [ 1, %28 ], [ %30, %29 ]
  %33 = load ptr, ptr %6, align 8, !tbaa !9
  %34 = getelementptr inbounds nuw %struct.lzma_index_coder, ptr %33, i32 0, i32 1
  store i64 %32, ptr %34, align 8, !tbaa !33
  %35 = load ptr, ptr %6, align 8, !tbaa !9
  %36 = getelementptr inbounds nuw %struct.lzma_index_coder, ptr %35, i32 0, i32 4
  store i64 0, ptr %36, align 8, !tbaa !32
  %37 = load ptr, ptr %6, align 8, !tbaa !9
  %38 = getelementptr inbounds nuw %struct.lzma_index_coder, ptr %37, i32 0, i32 7
  store i64 0, ptr %38, align 8, !tbaa !31
  %39 = load ptr, ptr %6, align 8, !tbaa !9
  %40 = getelementptr inbounds nuw %struct.lzma_index_coder, ptr %39, i32 0, i32 8
  store i32 0, ptr %40, align 8, !tbaa !36
  store i32 0, ptr %5, align 4
  br label %41

41:                                               ; preds = %31, %22
  %42 = load i32, ptr %5, align 4
  ret i32 %42
}

; Function Attrs: nounwind uwtable
define dso_local i32 @lzma_index_decoder_init(ptr noundef %0, ptr noundef %1, ptr noundef %2, i64 noundef %3) #0 {
  %5 = alloca i32, align 4
  %6 = alloca ptr, align 8
  %7 = alloca ptr, align 8
  %8 = alloca ptr, align 8
  %9 = alloca i64, align 8
  %10 = alloca ptr, align 8
  %11 = alloca i32, align 4
  store ptr %0, ptr %6, align 8, !tbaa !4
  store ptr %1, ptr %7, align 8, !tbaa !9
  store ptr %2, ptr %8, align 8, !tbaa !10
  store i64 %3, ptr %9, align 8, !tbaa !12
  br label %12

12:                                               ; preds = %4
  %13 = load ptr, ptr %6, align 8, !tbaa !4
  %14 = getelementptr inbounds nuw %struct.lzma_next_coder_s, ptr %13, i32 0, i32 2
  %15 = load i64, ptr %14, align 8, !tbaa !14
  %16 = icmp ne i64 ptrtoint (ptr @lzma_index_decoder_init to i64), %15
  br i1 %16, label %17, label %20

17:                                               ; preds = %12
  %18 = load ptr, ptr %6, align 8, !tbaa !4
  %19 = load ptr, ptr %7, align 8, !tbaa !9
  call void @lzma_next_end(ptr noundef %18, ptr noundef %19)
  br label %20

20:                                               ; preds = %17, %12
  %21 = load ptr, ptr %6, align 8, !tbaa !4
  %22 = getelementptr inbounds nuw %struct.lzma_next_coder_s, ptr %21, i32 0, i32 2
  store i64 ptrtoint (ptr @lzma_index_decoder_init to i64), ptr %22, align 8, !tbaa !14
  br label %23

23:                                               ; preds = %20
  %24 = load ptr, ptr %8, align 8, !tbaa !10
  %25 = icmp eq ptr %24, null
  br i1 %25, label %26, label %27

26:                                               ; preds = %23
  store i32 11, ptr %5, align 4
  br label %63

27:                                               ; preds = %23
  call void @llvm.lifetime.start.p0(i64 8, ptr %10) #5
  %28 = load ptr, ptr %6, align 8, !tbaa !4
  %29 = getelementptr inbounds nuw %struct.lzma_next_coder_s, ptr %28, i32 0, i32 0
  %30 = load ptr, ptr %29, align 8, !tbaa !16
  store ptr %30, ptr %10, align 8, !tbaa !9
  %31 = load ptr, ptr %10, align 8, !tbaa !9
  %32 = icmp eq ptr %31, null
  br i1 %32, label %33, label %51

33:                                               ; preds = %27
  %34 = load ptr, ptr %7, align 8, !tbaa !9
  %35 = call ptr @lzma_alloc(i64 noundef 72, ptr noundef %34)
  store ptr %35, ptr %10, align 8, !tbaa !9
  %36 = load ptr, ptr %10, align 8, !tbaa !9
  %37 = icmp eq ptr %36, null
  br i1 %37, label %38, label %39

38:                                               ; preds = %33
  store i32 5, ptr %5, align 4
  store i32 1, ptr %11, align 4
  br label %62

39:                                               ; preds = %33
  %40 = load ptr, ptr %10, align 8, !tbaa !9
  %41 = load ptr, ptr %6, align 8, !tbaa !4
  %42 = getelementptr inbounds nuw %struct.lzma_next_coder_s, ptr %41, i32 0, i32 0
  store ptr %40, ptr %42, align 8, !tbaa !16
  %43 = load ptr, ptr %6, align 8, !tbaa !4
  %44 = getelementptr inbounds nuw %struct.lzma_next_coder_s, ptr %43, i32 0, i32 3
  store ptr @index_decode, ptr %44, align 8, !tbaa !17
  %45 = load ptr, ptr %6, align 8, !tbaa !4
  %46 = getelementptr inbounds nuw %struct.lzma_next_coder_s, ptr %45, i32 0, i32 4
  store ptr @index_decoder_end, ptr %46, align 8, !tbaa !18
  %47 = load ptr, ptr %6, align 8, !tbaa !4
  %48 = getelementptr inbounds nuw %struct.lzma_next_coder_s, ptr %47, i32 0, i32 7
  store ptr @index_decoder_memconfig, ptr %48, align 8, !tbaa !19
  %49 = load ptr, ptr %10, align 8, !tbaa !9
  %50 = getelementptr inbounds nuw %struct.lzma_index_coder, ptr %49, i32 0, i32 2
  store ptr null, ptr %50, align 8, !tbaa !20
  br label %56

51:                                               ; preds = %27
  %52 = load ptr, ptr %10, align 8, !tbaa !9
  %53 = getelementptr inbounds nuw %struct.lzma_index_coder, ptr %52, i32 0, i32 2
  %54 = load ptr, ptr %53, align 8, !tbaa !20
  %55 = load ptr, ptr %7, align 8, !tbaa !9
  call void @lzma_index_end(ptr noundef %54, ptr noundef %55) #5
  br label %56

56:                                               ; preds = %51, %39
  %57 = load ptr, ptr %10, align 8, !tbaa !9
  %58 = load ptr, ptr %7, align 8, !tbaa !9
  %59 = load ptr, ptr %8, align 8, !tbaa !10
  %60 = load i64, ptr %9, align 8, !tbaa !12
  %61 = call i32 @index_decoder_reset(ptr noundef %57, ptr noundef %58, ptr noundef %59, i64 noundef %60)
  store i32 %61, ptr %5, align 4
  store i32 1, ptr %11, align 4
  br label %62

62:                                               ; preds = %56, %38
  call void @llvm.lifetime.end.p0(i64 8, ptr %10) #5
  br label %63

63:                                               ; preds = %62, %26
  %64 = load i32, ptr %5, align 4
  ret i32 %64
}

; Function Attrs: nounwind uwtable
define dso_local i32 @lzma_index_decoder(ptr noundef %0, ptr noundef %1, i64 noundef %2) #0 {
  %4 = alloca i32, align 4
  %5 = alloca ptr, align 8
  %6 = alloca ptr, align 8
  %7 = alloca i64, align 8
  %8 = alloca i32, align 4
  %9 = alloca i32, align 4
  %10 = alloca i32, align 4
  store ptr %0, ptr %5, align 8, !tbaa !9
  store ptr %1, ptr %6, align 8, !tbaa !10
  store i64 %2, ptr %7, align 8, !tbaa !12
  %11 = load ptr, ptr %6, align 8, !tbaa !10
  %12 = icmp ne ptr %11, null
  br i1 %12, label %13, label %15

13:                                               ; preds = %3
  %14 = load ptr, ptr %6, align 8, !tbaa !10
  store ptr null, ptr %14, align 8, !tbaa !40
  br label %15

15:                                               ; preds = %13, %3
  br label %16

16:                                               ; preds = %15
  br label %17

17:                                               ; preds = %16
  call void @llvm.lifetime.start.p0(i64 4, ptr %8) #5
  %18 = load ptr, ptr %5, align 8, !tbaa !9
  %19 = call i32 @lzma_strm_init(ptr noundef %18)
  store i32 %19, ptr %8, align 4, !tbaa !28
  %20 = load i32, ptr %8, align 4, !tbaa !28
  %21 = icmp ne i32 %20, 0
  br i1 %21, label %22, label %24

22:                                               ; preds = %17
  %23 = load i32, ptr %8, align 4, !tbaa !28
  store i32 %23, ptr %4, align 4
  store i32 1, ptr %9, align 4
  br label %25

24:                                               ; preds = %17
  store i32 0, ptr %9, align 4
  br label %25

25:                                               ; preds = %24, %22
  call void @llvm.lifetime.end.p0(i64 4, ptr %8) #5
  %26 = load i32, ptr %9, align 4
  switch i32 %26, label %61 [
    i32 0, label %27
    i32 1, label %59
  ]

27:                                               ; preds = %25
  br label %28

28:                                               ; preds = %27
  call void @llvm.lifetime.start.p0(i64 4, ptr %10) #5
  %29 = load ptr, ptr %5, align 8, !tbaa !9
  %30 = getelementptr inbounds nuw %struct.lzma_stream, ptr %29, i32 0, i32 7
  %31 = load ptr, ptr %30, align 8, !tbaa !42
  %32 = getelementptr inbounds nuw %struct.lzma_internal_s, ptr %31, i32 0, i32 0
  %33 = load ptr, ptr %5, align 8, !tbaa !9
  %34 = getelementptr inbounds nuw %struct.lzma_stream, ptr %33, i32 0, i32 6
  %35 = load ptr, ptr %34, align 8, !tbaa !45
  %36 = load ptr, ptr %6, align 8, !tbaa !10
  %37 = load i64, ptr %7, align 8, !tbaa !12
  %38 = call i32 @lzma_index_decoder_init(ptr noundef %32, ptr noundef %35, ptr noundef %36, i64 noundef %37)
  store i32 %38, ptr %10, align 4, !tbaa !28
  %39 = load i32, ptr %10, align 4, !tbaa !28
  %40 = icmp ne i32 %39, 0
  br i1 %40, label %41, label %44

41:                                               ; preds = %28
  %42 = load ptr, ptr %5, align 8, !tbaa !9
  call void @lzma_end(ptr noundef %42) #5
  %43 = load i32, ptr %10, align 4, !tbaa !28
  store i32 %43, ptr %4, align 4
  store i32 1, ptr %9, align 4
  br label %45

44:                                               ; preds = %28
  store i32 0, ptr %9, align 4
  br label %45

45:                                               ; preds = %44, %41
  call void @llvm.lifetime.end.p0(i64 4, ptr %10) #5
  %46 = load i32, ptr %9, align 4
  switch i32 %46, label %61 [
    i32 0, label %47
    i32 1, label %59
  ]

47:                                               ; preds = %45
  br label %48

48:                                               ; preds = %47
  %49 = load ptr, ptr %5, align 8, !tbaa !9
  %50 = getelementptr inbounds nuw %struct.lzma_stream, ptr %49, i32 0, i32 7
  %51 = load ptr, ptr %50, align 8, !tbaa !42
  %52 = getelementptr inbounds nuw %struct.lzma_internal_s, ptr %51, i32 0, i32 3
  %53 = getelementptr inbounds [5 x i8], ptr %52, i64 0, i64 0
  store i8 1, ptr %53, align 8, !tbaa !46
  %54 = load ptr, ptr %5, align 8, !tbaa !9
  %55 = getelementptr inbounds nuw %struct.lzma_stream, ptr %54, i32 0, i32 7
  %56 = load ptr, ptr %55, align 8, !tbaa !42
  %57 = getelementptr inbounds nuw %struct.lzma_internal_s, ptr %56, i32 0, i32 3
  %58 = getelementptr inbounds [5 x i8], ptr %57, i64 0, i64 3
  store i8 1, ptr %58, align 1, !tbaa !46
  store i32 0, ptr %4, align 4
  br label %59

59:                                               ; preds = %48, %45, %25
  %60 = load i32, ptr %4, align 4
  ret i32 %60

61:                                               ; preds = %45, %25
  unreachable
}