; Function Attrs: nounwind uwtable
define dso_local i32 @lzma_index_decoder(ptr noundef %0, ptr noundef %1, i64 noundef %2) local_unnamed_addr #0 {
  %.not = icmp eq ptr %1, null
  br i1 %.not, label %5, label %4

4:                                                ; preds = %3
  store ptr null, ptr %1, align 8, !tbaa !20
  br label %5

5:                                                ; preds = %4, %3
  %6 = tail call i32 @lzma_strm_init(ptr noundef %0) #6
  %.not19.not = icmp eq i32 %6, 0
  br i1 %.not19.not, label %7, label %45

7:                                                ; preds = %5
  %8 = getelementptr inbounds nuw i8, ptr %0, i64 56
  %9 = load ptr, ptr %8, align 8, !tbaa !33
  %10 = getelementptr inbounds nuw i8, ptr %0, i64 48
  %11 = load ptr, ptr %10, align 8, !tbaa !37
  %12 = getelementptr inbounds nuw i8, ptr %9, i64 16
  %13 = load i64, ptr %12, align 8, !tbaa !4
  %.not.i = icmp eq i64 %13, ptrtoint (ptr @lzma_index_decoder_init to i64)
  br i1 %.not.i, label %15, label %14

14:                                               ; preds = %7
  tail call void @lzma_next_end(ptr noundef nonnull %9, ptr noundef %11) #6
  br label %15

15:                                               ; preds = %14, %7
  store i64 ptrtoint (ptr @lzma_index_decoder_init to i64), ptr %12, align 8, !tbaa !4
  br i1 %.not, label %35, label %16

16:                                               ; preds = %15
  %17 = load ptr, ptr %9, align 8, !tbaa !10
  %18 = icmp eq ptr %17, null
  br i1 %18, label %19, label %27

19:                                               ; preds = %16
  %20 = tail call ptr @lzma_alloc(i64 noundef 72, ptr noundef %11) #6
  %21 = icmp eq ptr %20, null
  br i1 %21, label %35, label %22

22:                                               ; preds = %19
  store ptr %20, ptr %9, align 8, !tbaa !10
  %23 = getelementptr inbounds nuw i8, ptr %9, i64 24
  store ptr @index_decode, ptr %23, align 8, !tbaa !11
  %24 = getelementptr inbounds nuw i8, ptr %9, i64 32
  store ptr @index_decoder_end, ptr %24, align 8, !tbaa !12
  %25 = getelementptr inbounds nuw i8, ptr %9, i64 56
  store ptr @index_decoder_memconfig, ptr %25, align 8, !tbaa !13
  %26 = getelementptr inbounds nuw i8, ptr %20, i64 16
  store ptr null, ptr %26, align 8, !tbaa !14
  br label %30

27:                                               ; preds = %16
  %28 = getelementptr inbounds nuw i8, ptr %17, i64 16
  %29 = load ptr, ptr %28, align 8, !tbaa !14
  tail call void @lzma_index_end(ptr noundef %29, ptr noundef %11) #6
  br label %30

30:                                               ; preds = %27, %22
  %.0.i = phi ptr [ %20, %22 ], [ %17, %27 ]
  %31 = getelementptr inbounds nuw i8, ptr %.0.i, i64 24
  store ptr %1, ptr %31, align 8, !tbaa !19
  store ptr null, ptr %1, align 8, !tbaa !20
  %32 = tail call ptr @lzma_index_init(ptr noundef %11) #6
  %33 = getelementptr inbounds nuw i8, ptr %.0.i, i64 16
  store ptr %32, ptr %33, align 8, !tbaa !14
  %34 = icmp eq ptr %32, null
  br i1 %34, label %35, label %36

35:                                               ; preds = %30, %19, %15
  %.021.i.ph = phi i32 [ 5, %30 ], [ 5, %19 ], [ 11, %15 ]
  tail call void @lzma_end(ptr noundef nonnull %0) #6
  br label %45

36:                                               ; preds = %30
  store i32 0, ptr %.0.i, align 8, !tbaa !21
  %37 = tail call i64 @llvm.umax.i64(i64 %2, i64 1)
  %38 = getelementptr inbounds nuw i8, ptr %.0.i, i64 8
  store i64 %37, ptr %38, align 8, !tbaa !22
  %39 = getelementptr inbounds nuw i8, ptr %.0.i, i64 32
  store i64 0, ptr %39, align 8, !tbaa !23
  %40 = getelementptr inbounds nuw i8, ptr %.0.i, i64 56
  store i64 0, ptr %40, align 8, !tbaa !24
  %41 = getelementptr inbounds nuw i8, ptr %.0.i, i64 64
  store i32 0, ptr %41, align 8, !tbaa !25
  %42 = load ptr, ptr %8, align 8, !tbaa !33
  %43 = getelementptr inbounds nuw i8, ptr %42, i64 96
  store i8 1, ptr %43, align 8, !tbaa !38
  %44 = getelementptr inbounds nuw i8, ptr %42, i64 99
  store i8 1, ptr %44, align 1, !tbaa !38
  br label %45

45:                                               ; preds = %35, %5, %36
  %.1 = phi i32 [ %6, %5 ], [ %.021.i.ph, %35 ], [ 0, %36 ]
  ret i32 %.1
}